target datalayout = "e-m:e-p270:32:32-p271:32:32-p272:64:64-i64:64-i128:128-f80:128-n8:16:32:64-S128"
target triple = "x86_64-pc-linux-gnu"

%struct.AVCodecContext = type { ptr, i32, i32, ptr, i32, i32, ptr, ptr, ptr, i64, i32, i32, ptr, i32, %struct.AVRational, %struct.AVRational, %struct.AVRational, i32, i32, i32, i32, i32, %struct.AVRational, i32, i32, i32, i32, i32, i32, i32, i32, i32, i32, i32, ptr, ptr, i32, float, float, float, float, float, float, float, float, float, i32, i32, i32, i32, i32, i32, i32, i32, i32, i32, i32, i32, ptr, ptr, ptr, i32, i32, i32, i32, i32, i32, i32, i32, i32, i32, %struct.AVChannelLayout, i32, i32, i32, i32, i32, i32, i32, i32, ptr, i32, i32, i32, float, float, i32, i32, i32, i32, i32, ptr, i64, i64, float, float, i32, i32, ptr, ptr, i32, i32, i32, i32, i32, ptr, ptr, ptr, ptr, i32, i32, [8 x i64], i32, i32, i32, i32, i32, i32, i32, ptr, ptr, i32, i32, i32, i32, i32, i32, i32, i32, i32, i32, ptr, ptr, i32, i32, ptr, ptr, ptr, ptr, i32, i32, i64, i32, i32, i64, ptr, i64, ptr, i32, ptr, i32 }
%struct.AVRational = type { i32, i32 }
%struct.AVChannelLayout = type { i32, i32, %union.anon, ptr }
%union.anon = type { i64 }
%struct.FFPsyPreprocessContext = type { ptr, float, ptr, ptr, %struct.FFIIRFilterContext }
%struct.FFIIRFilterContext = type { ptr }

; Function Attrs: cold nounwind optsize uwtable
define ptr @ff_psy_preprocess_init(ptr noundef %0) #0 {
  %2 = alloca ptr, align 8
  %3 = alloca ptr, align 8
  %4 = alloca ptr, align 8
  %5 = alloca i32, align 4
  %6 = alloca float, align 4
  %7 = alloca i32, align 4
  store ptr %0, ptr %3, align 8, !tbaa !9
  call void @llvm.lifetime.start.p0(i64 8, ptr %4) #5
  call void @llvm.lifetime.start.p0(i64 4, ptr %5) #5
  call void @llvm.lifetime.start.p0(i64 4, ptr %6) #5
  store float 0.000000e+00, ptr %6, align 4, !tbaa !61
  %8 = call noalias ptr @av_mallocz(i64 noundef 40)
  store ptr %8, ptr %4, align 8, !tbaa !62
  %9 = load ptr, ptr %4, align 8, !tbaa !62
  %10 = icmp ne ptr %9, null
  br i1 %10, label %12, label %11

11:                                               ; preds = %1
  store ptr null, ptr %2, align 8
  store i32 1, ptr %7, align 4
  br label %98

12:                                               ; preds = %1
  %13 = load ptr, ptr %3, align 8, !tbaa !9
  %14 = load ptr, ptr %4, align 8, !tbaa !62
  %15 = getelementptr inbounds nuw %struct.FFPsyPreprocessContext, ptr %14, i32 0, i32 0
  store ptr %13, ptr %15, align 8, !tbaa !64
  %16 = load ptr, ptr %3, align 8, !tbaa !9
  %17 = getelementptr inbounds nuw %struct.AVCodecContext, ptr %16, i32 0, i32 4
  %18 = load i32, ptr %17, align 8, !tbaa !55
  %19 = icmp ne i32 %18, 86018
  br i1 %19, label %20, label %94

20:                                               ; preds = %12
  %21 = load ptr, ptr %3, align 8, !tbaa !9
  %22 = getelementptr inbounds nuw %struct.AVCodecContext, ptr %21, i32 0, i32 74
  %23 = load i32, ptr %22, align 8, !tbaa !46
  %24 = icmp sgt i32 %23, 0
  br i1 %24, label %25, label %37

25:                                               ; preds = %20
  %26 = load ptr, ptr %3, align 8, !tbaa !9
  %27 = getelementptr inbounds nuw %struct.AVCodecContext, ptr %26, i32 0, i32 74
  %28 = load i32, ptr %27, align 8, !tbaa !46
  %29 = sitofp i32 %28 to double
  %30 = fmul nsz double 2.000000e+00, %29
  %31 = load ptr, ptr %3, align 8, !tbaa !9
  %32 = getelementptr inbounds nuw %struct.AVCodecContext, ptr %31, i32 0, i32 69
  %33 = load i32, ptr %32, align 8, !tbaa !69
  %34 = sitofp i32 %33 to double
  %35 = fdiv nsz double %30, %34
  %36 = fptrunc nsz double %35 to float
  store float %36, ptr %6, align 4, !tbaa !61
  br label %37

37:                                               ; preds = %25, %20
  %38 = load float, ptr %6, align 4, !tbaa !61
  %39 = fcmp nsz une float %38, 0.000000e+00
  br i1 %39, label %40, label %50

40:                                               ; preds = %37
  %41 = load float, ptr %6, align 4, !tbaa !61
  %42 = fpext nsz float %41 to double
  %43 = fcmp nsz olt double %42, 0x3FEF5C28F5C28F5C
  br i1 %43, label %44, label %50

44:                                               ; preds = %40
  %45 = load ptr, ptr %3, align 8, !tbaa !9
  %46 = load float, ptr %6, align 4, !tbaa !61
  %47 = call ptr @ff_iir_filter_init_coeffs(ptr noundef %45, i32 noundef 2, i32 noundef 0, i32 noundef 4, float noundef %46, float noundef 0.000000e+00, float noundef 0.000000e+00)
  %48 = load ptr, ptr %4, align 8, !tbaa !62
  %49 = getelementptr inbounds nuw %struct.FFPsyPreprocessContext, ptr %48, i32 0, i32 2
  store ptr %47, ptr %49, align 8, !tbaa !70
  br label %50

50:                                               ; preds = %44, %40, %37
  %51 = load ptr, ptr %4, align 8, !tbaa !62
  %52 = getelementptr inbounds nuw %struct.FFPsyPreprocessContext, ptr %51, i32 0, i32 2
  %53 = load ptr, ptr %52, align 8, !tbaa !70
  %54 = icmp ne ptr %53, null
  br i1 %54, label %55, label %93

55:                                               ; preds = %50
  %56 = load ptr, ptr %3, align 8, !tbaa !9
  %57 = getelementptr inbounds nuw %struct.AVCodecContext, ptr %56, i32 0, i32 71
  %58 = getelementptr inbounds nuw %struct.AVChannelLayout, ptr %57, i32 0, i32 1
  %59 = load i32, ptr %58, align 4, !tbaa !26
  %60 = sext i32 %59 to i64
  %61 = call noalias ptr @av_calloc(i64 noundef %60, i64 noundef 8)
  %62 = load ptr, ptr %4, align 8, !tbaa !62
  %63 = getelementptr inbounds nuw %struct.FFPsyPreprocessContext, ptr %62, i32 0, i32 3
  store ptr %61, ptr %63, align 8, !tbaa !71
  %64 = load ptr, ptr %4, align 8, !tbaa !62
  %65 = getelementptr inbounds nuw %struct.FFPsyPreprocessContext, ptr %64, i32 0, i32 3
  %66 = load ptr, ptr %65, align 8, !tbaa !71
  %67 = icmp ne ptr %66, null
  br i1 %67, label %73, label %68

68:                                               ; preds = %55
  %69 = load ptr, ptr %4, align 8, !tbaa !62
  %70 = getelementptr inbounds nuw %struct.FFPsyPreprocessContext, ptr %69, i32 0, i32 2
  %71 = load ptr, ptr %70, align 8, !tbaa !70
  call void @av_free(ptr noundef %71)
  %72 = load ptr, ptr %4, align 8, !tbaa !62
  call void @av_free(ptr noundef %72)
  store ptr null, ptr %2, align 8
  store i32 1, ptr %7, align 4
  br label %98

73:                                               ; preds = %55
  store i32 0, ptr %5, align 4, !tbaa !11
  br label %74

74:                                               ; preds = %89, %73
  %75 = load i32, ptr %5, align 4, !tbaa !11
  %76 = load ptr, ptr %3, align 8, !tbaa !9
  %77 = getelementptr inbounds nuw %struct.AVCodecContext, ptr %76, i32 0, i32 71
  %78 = getelementptr inbounds nuw %struct.AVChannelLayout, ptr %77, i32 0, i32 1
  %79 = load i32, ptr %78, align 4, !tbaa !26
  %80 = icmp slt i32 %75, %79
  br i1 %80, label %81, label %92

81:                                               ; preds = %74
  %82 = call ptr @ff_iir_filter_init_state(i32 noundef 4)
  %83 = load ptr, ptr %4, align 8, !tbaa !62
  %84 = getelementptr inbounds nuw %struct.FFPsyPreprocessContext, ptr %83, i32 0, i32 3
  %85 = load ptr, ptr %84, align 8, !tbaa !71
  %86 = load i32, ptr %5, align 4, !tbaa !11
  %87 = sext i32 %86 to i64
  %88 = getelementptr inbounds ptr, ptr %85, i64 %87
  store ptr %82, ptr %88, align 8, !tbaa !72
  br label %89

89:                                               ; preds = %81
  %90 = load i32, ptr %5, align 4, !tbaa !11
  %91 = add nsw i32 %90, 1
  store i32 %91, ptr %5, align 4, !tbaa !11
  br label %74, !llvm.loop !74

92:                                               ; preds = %74
  br label %93

93:                                               ; preds = %92, %50
  br label %94

94:                                               ; preds = %93, %12
  %95 = load ptr, ptr %4, align 8, !tbaa !62
  %96 = getelementptr inbounds nuw %struct.FFPsyPreprocessContext, ptr %95, i32 0, i32 4
  call void @ff_iir_filter_init(ptr noundef %96)
  %97 = load ptr, ptr %4, align 8, !tbaa !62
  store ptr %97, ptr %2, align 8
  store i32 1, ptr %7, align 4
  br label %98

98:                                               ; preds = %94, %68, %11
  call void @llvm.lifetime.end.p0(i64 4, ptr %6) #5
  call void @llvm.lifetime.end.p0(i64 4, ptr %5) #5
  call void @llvm.lifetime.end.p0(i64 8, ptr %4) #5
  %99 = load ptr, ptr %2, align 8
  ret ptr %99
}