; Function Attrs: cold nounwind optsize uwtable
define ptr @ff_psy_preprocess_init(ptr noundef %0) local_unnamed_addr #0 {
  %2 = tail call noalias ptr @av_mallocz(i64 noundef 40) #5
  %.not = icmp eq ptr %2, null
  br i1 %.not, label %43, label %3

3:                                                ; preds = %1
  store ptr %0, ptr %2, align 8, !tbaa !54
  %4 = getelementptr inbounds nuw i8, ptr %0, i64 24
  %5 = load i32, ptr %4, align 8, !tbaa !48
  %.not29 = icmp eq i32 %5, 86018
  br i1 %.not29, label %.loopexit, label %6

6:                                                ; preds = %3
  %7 = getelementptr inbounds nuw i8, ptr %0, i64 384
  %8 = load i32, ptr %7, align 8, !tbaa !39
  %9 = icmp sgt i32 %8, 0
  br i1 %9, label %10, label %.thread

10:                                               ; preds = %6
  %11 = shl nuw i32 %8, 1
  %12 = uitofp i32 %11 to double
  %13 = getelementptr inbounds nuw i8, ptr %0, i64 344
  %14 = load i32, ptr %13, align 8, !tbaa !59
  %15 = sitofp i32 %14 to double
  %16 = fdiv nsz double %12, %15
  %17 = fptrunc nsz double %16 to float
  %18 = fcmp nsz une float %17, 0.000000e+00
  %19 = fpext nsz float %17 to double
  %20 = fcmp nsz olt double %19, 0x3FEF5C28F5C28F5C
  %or.cond = and i1 %18, %20
  br i1 %or.cond, label %21, label %.thread

21:                                               ; preds = %10
  %22 = tail call ptr @ff_iir_filter_init_coeffs(ptr noundef nonnull %0, i32 noundef 2, i32 noundef 0, i32 noundef 4, float noundef %17, float noundef 0.000000e+00, float noundef 0.000000e+00) #5
  %23 = getelementptr inbounds nuw i8, ptr %2, i64 16
  store ptr %22, ptr %23, align 8, !tbaa !60
  br label %.thread

.thread:                                          ; preds = %6, %21, %10
  %24 = getelementptr inbounds nuw i8, ptr %2, i64 16
  %25 = load ptr, ptr %24, align 8, !tbaa !60
  %.not30 = icmp eq ptr %25, null
  br i1 %.not30, label %.loopexit, label %26

26:                                               ; preds = %.thread
  %27 = getelementptr inbounds nuw i8, ptr %0, i64 356
  %28 = load i32, ptr %27, align 4, !tbaa !18
  %29 = sext i32 %28 to i64
  %30 = tail call noalias ptr @av_calloc(i64 noundef %29, i64 noundef 8) #5
  %31 = getelementptr inbounds nuw i8, ptr %2, i64 24
  store ptr %30, ptr %31, align 8, !tbaa !61
  %.not31 = icmp eq ptr %30, null
  br i1 %.not31, label %34, label %.preheader

.preheader:                                       ; preds = %26
  %32 = load i32, ptr %27, align 4, !tbaa !18
  %33 = icmp sgt i32 %32, 0
  br i1 %33, label %.lr.ph, label %.loopexit

34:                                               ; preds = %26
  %35 = load ptr, ptr %24, align 8, !tbaa !60
  tail call void @av_free(ptr noundef %35) #5
  tail call void @av_free(ptr noundef nonnull %2) #5
  br label %43

.lr.ph:                                           ; preds = %.preheader, %.lr.ph
  %indvars.iv = phi i64 [ %indvars.iv.next, %.lr.ph ], [ 0, %.preheader ]
  %36 = tail call ptr @ff_iir_filter_init_state(i32 noundef 4) #5
  %37 = load ptr, ptr %31, align 8, !tbaa !61
  %38 = getelementptr inbounds nuw ptr, ptr %37, i64 %indvars.iv
  store ptr %36, ptr %38, align 8, !tbaa !62
  %indvars.iv.next = add nuw nsw i64 %indvars.iv, 1
  %39 = load i32, ptr %27, align 4, !tbaa !18
  %40 = sext i32 %39 to i64
  %41 = icmp slt i64 %indvars.iv.next, %40
  br i1 %41, label %.lr.ph, label %.loopexit, !llvm.loop !64

.loopexit:                                        ; preds = %.lr.ph, %.preheader, %.thread, %3
  %42 = getelementptr inbounds nuw i8, ptr %2, i64 32
  tail call void @ff_iir_filter_init(ptr noundef nonnull %42) #5
  br label %43

43:                                               ; preds = %1, %.loopexit, %34
  %.026 = phi ptr [ %2, %.loopexit ], [ null, %34 ], [ null, %1 ]
  ret ptr %.026
}